target datalayout = "e-m:e-p270:32:32-p271:32:32-p272:64:64-i64:64-i128:128-f80:128-n8:16:32:64-S128"
target triple = "x86_64-pc-linux-gnu"

; Function Attrs: nounwind uwtable
define i32 @tng_data_vector_interval_get(ptr noundef %0, i64 noundef %1, i64 noundef %2, i64 noundef %3, i8 noundef signext %4, ptr noundef %5, ptr noundef %6, ptr noundef %7, ptr noundef %8) #0 {
  %10 = alloca ptr, align 8
  %11 = alloca i64, align 8
  %12 = alloca i64, align 8
  %13 = alloca i64, align 8
  %14 = alloca i8, align 1
  %15 = alloca ptr, align 8
  %16 = alloca ptr, align 8
  %17 = alloca ptr, align 8
  %18 = alloca ptr, align 8
  store ptr %0, ptr %10, align 8, !tbaa !3
  store i64 %1, ptr %11, align 8, !tbaa !26
  store i64 %2, ptr %12, align 8, !tbaa !26
  store i64 %3, ptr %13, align 8, !tbaa !26
  store i8 %4, ptr %14, align 1, !tbaa !23
  store ptr %5, ptr %15, align 8, !tbaa !391
  store ptr %6, ptr %16, align 8, !tbaa !47
  store ptr %7, ptr %17, align 8, !tbaa !47
  store ptr %8, ptr %18, align 8, !tbaa !19
  %19 = load ptr, ptr %10, align 8, !tbaa !3
  %20 = load i64, ptr %11, align 8, !tbaa !26
  %21 = load i64, ptr %12, align 8, !tbaa !26
  %22 = load i64, ptr %13, align 8, !tbaa !26
  %23 = load i8, ptr %14, align 1, !tbaa !23
  %24 = load ptr, ptr %15, align 8, !tbaa !391
  %25 = load ptr, ptr %16, align 8, !tbaa !47
  %26 = load ptr, ptr %17, align 8, !tbaa !47
  %27 = load ptr, ptr %18, align 8, !tbaa !19
  %28 = call i32 @tng_gen_data_vector_interval_get(ptr noundef %19, i64 noundef %20, i32 noundef 0, i64 noundef %21, i64 noundef %22, i8 noundef signext %23, ptr noundef %24, ptr noundef null, ptr noundef %25, ptr noundef %26, ptr noundef %27)
  ret i32 %28
}

; Function Attrs: nounwind uwtable
define i32 @tng_util_box_shape_read_range(ptr noundef %0, i64 noundef %1, i64 noundef %2, ptr noundef %3, ptr noundef %4) #0 {
  %6 = alloca i32, align 4
  %7 = alloca ptr, align 8
  %8 = alloca i64, align 8
  %9 = alloca i64, align 8
  %10 = alloca ptr, align 8
  %11 = alloca ptr, align 8
  %12 = alloca i64, align 8
  %13 = alloca i8, align 1
  %14 = alloca i32, align 4
  %15 = alloca i32, align 4
  store ptr %0, ptr %7, align 8, !tbaa !3
  store i64 %1, ptr %8, align 8, !tbaa !26
  store i64 %2, ptr %9, align 8, !tbaa !26
  store ptr %3, ptr %10, align 8, !tbaa !429
  store ptr %4, ptr %11, align 8, !tbaa !47
  call void @llvm.lifetime.start.p0(i64 8, ptr %12) #11
  call void @llvm.lifetime.start.p0(i64 1, ptr %13) #11
  call void @llvm.lifetime.start.p0(i64 4, ptr %14) #11
  %16 = load ptr, ptr %7, align 8, !tbaa !3
  %17 = load i64, ptr %8, align 8, !tbaa !26
  %18 = load i64, ptr %9, align 8, !tbaa !26
  %19 = load ptr, ptr %10, align 8, !tbaa !429
  %20 = load ptr, ptr %11, align 8, !tbaa !47
  %21 = call i32 @tng_data_vector_interval_get(ptr noundef %16, i64 noundef 268435456, i64 noundef %17, i64 noundef %18, i8 noundef signext 1, ptr noundef %19, ptr noundef %20, ptr noundef %12, ptr noundef %13)
  store i32 %21, ptr %14, align 4, !tbaa !20
  %22 = load i32, ptr %14, align 4, !tbaa !20
  %23 = icmp eq i32 %22, 0
  br i1 %23, label %24, label %29

24:                                               ; preds = %5
  %25 = load i8, ptr %13, align 1, !tbaa !23
  %26 = sext i8 %25 to i32
  %27 = icmp ne i32 %26, 2
  br i1 %27, label %28, label %29

28:                                               ; preds = %24
  store i32 1, ptr %6, align 4
  store i32 1, ptr %15, align 4
  br label %31

29:                                               ; preds = %24, %5
  %30 = load i32, ptr %14, align 4, !tbaa !20
  store i32 %30, ptr %6, align 4
  store i32 1, ptr %15, align 4
  br label %31

31:                                               ; preds = %29, %28
  call void @llvm.lifetime.end.p0(i64 4, ptr %14) #11
  call void @llvm.lifetime.end.p0(i64 1, ptr %13) #11
  call void @llvm.lifetime.end.p0(i64 8, ptr %12) #11
  %32 = load i32, ptr %6, align 4
  ret i32 %32
}