; Function Attrs: nounwind uwtable
define range(i32 0, 3) i32 @tng_util_box_shape_read_range(ptr noundef %0, i64 noundef %1, i64 noundef %2, ptr noundef captures(none) %3, ptr noundef captures(none) %4) local_unnamed_addr #4 {
  %6 = alloca i64, align 8
  %7 = alloca i8, align 1
  call void @llvm.lifetime.start.p0(i64 8, ptr nonnull %6) #26
  call void @llvm.lifetime.start.p0(i64 1, ptr nonnull %7) #26
  %8 = call fastcc range(i32 0, 3) i32 @tng_gen_data_vector_interval_get(ptr noundef %0, i64 noundef 268435456, i32 noundef 0, i64 noundef %1, i64 noundef %2, i8 noundef signext 1, ptr noundef %3, ptr noundef null, ptr noundef %4, ptr noundef nonnull %6, ptr noundef nonnull %7)
  %9 = icmp eq i32 %8, 0
  %10 = load i8, ptr %7, align 1
  %11 = icmp ne i8 %10, 2
  %or.cond = select i1 %9, i1 %11, i1 false
  %. = select i1 %or.cond, i32 1, i32 %8
  call void @llvm.lifetime.end.p0(i64 1, ptr nonnull %7) #26
  call void @llvm.lifetime.end.p0(i64 8, ptr nonnull %6) #26
  ret i32 %.
}